; Function Attrs: nounwind uwtable
define range(i32 0, 2) i32 @Fra_ClausRunSat0(ptr noundef readonly captures(none) %0) local_unnamed_addr #0 {
  %2 = alloca [2 x i32], align 4
  call void @llvm.lifetime.start.p0(i64 8, ptr nonnull %2) #23
  %3 = getelementptr inbounds nuw i8, ptr %0, i64 64
  %4 = load ptr, ptr %3, align 8, !tbaa !21
  %5 = getelementptr i8, ptr %4, i64 24
  %.val = load ptr, ptr %5, align 8, !tbaa !22
  %6 = getelementptr i8, ptr %.val, i64 8
  %.val.val = load ptr, ptr %6, align 8, !tbaa !31
  %7 = load ptr, ptr %.val.val, align 8, !tbaa !33
  %8 = getelementptr inbounds nuw i8, ptr %0, i64 88
  %9 = load ptr, ptr %8, align 8, !tbaa !3
  %10 = getelementptr inbounds nuw i8, ptr %9, i64 32
  %11 = load ptr, ptr %10, align 8, !tbaa !36
  %12 = getelementptr inbounds nuw i8, ptr %7, i64 36
  %13 = load i32, ptr %12, align 4, !tbaa !37
  %14 = sext i32 %13 to i64
  %15 = getelementptr inbounds i32, ptr %11, i64 %14
  %16 = load i32, ptr %15, align 4, !tbaa !38
  %17 = shl nsw i32 %16, 1
  store i32 %17, ptr %2, align 4, !tbaa !38
  %18 = getelementptr inbounds nuw i8, ptr %0, i64 72
  %19 = load ptr, ptr %18, align 8, !tbaa !42
  %20 = getelementptr inbounds nuw i8, ptr %2, i64 4
  %21 = getelementptr inbounds nuw i8, ptr %0, i64 56
  %22 = load i32, ptr %21, align 8, !tbaa !40
  %23 = sext i32 %22 to i64
  %24 = call i32 @sat_solver_solve(ptr noundef %19, ptr noundef nonnull %2, ptr noundef nonnull %20, i64 noundef %23, i64 noundef 0, i64 noundef 0, i64 noundef 0) #23
  %25 = icmp eq i32 %24, -1
  %. = zext i1 %25 to i32
  call void @llvm.lifetime.end.p0(i64 8, ptr nonnull %2) #23
  ret i32 %.
}